target datalayout = "e-m:e-p270:32:32-p271:32:32-p272:64:64-i64:64-i128:128-f80:128-n8:16:32:64-S128"
target triple = "x86_64-unknown-linux-gnu"

; Function Attrs: mustprogress uwtable
define internal void @_ZN6google8protobuf8compiler12_GLOBAL__N_116AddTrailingSlashEPNSt7__cxx1112basic_stringIcSt11char_traitsIcESaIcEEE(ptr noundef %path) #4 {
entry:
  %path.addr = alloca ptr, align 8
  store ptr %path, ptr %path.addr, align 8
  %0 = load ptr, ptr %path.addr, align 8
  %call = call noundef zeroext i1 @_ZNKSt7__cxx1112basic_stringIcSt11char_traitsIcESaIcEE5emptyEv(ptr noundef nonnull align 8 dereferenceable(32) %0) #3
  br i1 %call, label %if.end, label %land.lhs.true

land.lhs.true:                                    ; preds = %entry
  %1 = load ptr, ptr %path.addr, align 8
  %2 = load ptr, ptr %path.addr, align 8
  %call1 = call noundef i64 @_ZNKSt7__cxx1112basic_stringIcSt11char_traitsIcESaIcEE4sizeEv(ptr noundef nonnull align 8 dereferenceable(32) %2) #3
  %sub = sub i64 %call1, 1
  %call2 = call noundef nonnull align 1 dereferenceable(1) ptr @_ZNSt7__cxx1112basic_stringIcSt11char_traitsIcESaIcEE2atEm(ptr noundef nonnull align 8 dereferenceable(32) %1, i64 noundef %sub)
  %3 = load i8, ptr %call2, align 1
  %conv = sext i8 %3 to i32
  %cmp = icmp ne i32 %conv, 47
  br i1 %cmp, label %if.then, label %if.end

if.then:                                          ; preds = %land.lhs.true
  %4 = load ptr, ptr %path.addr, align 8
  call void @_ZNSt7__cxx1112basic_stringIcSt11char_traitsIcESaIcEE9push_backEc(ptr noundef nonnull align 8 dereferenceable(32) %4, i8 noundef signext 47)
  br label %if.end

if.end:                                           ; preds = %if.then, %land.lhs.true, %entry
  ret void
}